target datalayout = "e-m:e-p270:32:32-p271:32:32-p272:64:64-i64:64-i128:128-f80:128-n8:16:32:64-S128"
target triple = "x86_64-unknown-linux-gnu"

%"class.std::__cxx11::basic_string" = type { %"struct.std::__cxx11::basic_string<char>::_Alloc_hider", i64, %union.anon.3 }
%"struct.std::__cxx11::basic_string<char>::_Alloc_hider" = type { ptr }
%union.anon.3 = type { i64, [8 x i8] }
%"struct.std::_Vector_base.18" = type { %"struct.std::_Vector_base<std::pair<const OpenImageIO_v2_6_0::(anonymous namespace)::XMPtag *, std::__cxx11::basic_string<char>>, std::allocator<std::pair<const OpenImageIO_v2_6_0::(anonymous namespace)::XMPtag *, std::__cxx11::basic_string<char>>>>::_Vector_impl" }
%"struct.std::_Vector_base<std::pair<const OpenImageIO_v2_6_0::(anonymous namespace)::XMPtag *, std::__cxx11::basic_string<char>>, std::allocator<std::pair<const OpenImageIO_v2_6_0::(anonymous namespace)::XMPtag *, std::__cxx11::basic_string<char>>>>::_Vector_impl" = type { %"struct.std::_Vector_base<std::pair<const OpenImageIO_v2_6_0::(anonymous namespace)::XMPtag *, std::__cxx11::basic_string<char>>, std::allocator<std::pair<const OpenImageIO_v2_6_0::(anonymous namespace)::XMPtag *, std::__cxx11::basic_string<char>>>>::_Vector_impl_data" }
%"struct.std::_Vector_base<std::pair<const OpenImageIO_v2_6_0::(anonymous namespace)::XMPtag *, std::__cxx11::basic_string<char>>, std::allocator<std::pair<const OpenImageIO_v2_6_0::(anonymous namespace)::XMPtag *, std::__cxx11::basic_string<char>>>>::_Vector_impl_data" = type { ptr, ptr, ptr }
%"struct.std::pair.50" = type { ptr, %"class.std::__cxx11::basic_string" }

; Function Attrs: mustprogress nounwind uwtable
define internal void @_ZNSt4pairIPKN18OpenImageIO_v2_6_012_GLOBAL__N_16XMPtagENSt7__cxx1112basic_stringIcSt11char_traitsIcESaIcEEEED2Ev(ptr noundef nonnull align 8 dereferenceable(40) %this) unnamed_addr #4 align 2 {
entry:
  %this.addr = alloca ptr, align 8
  store ptr %this, ptr %this.addr, align 8
  %this1 = load ptr, ptr %this.addr, align 8
  %second = getelementptr inbounds %"struct.std::pair.50", ptr %this1, i32 0, i32 1
  call void @_ZNSt7__cxx1112basic_stringIcSt11char_traitsIcESaIcEED1Ev(ptr noundef nonnull align 8 dereferenceable(32) %second) #3
  ret void
}

; Function Attrs: mustprogress nounwind uwtable
define internal void @_ZNSt15__new_allocatorISt4pairIPKN18OpenImageIO_v2_6_012_GLOBAL__N_16XMPtagENSt7__cxx1112basic_stringIcSt11char_traitsIcESaIcEEEEED2Ev(ptr noundef nonnull align 1 dereferenceable(1) %this) unnamed_addr #4 align 2 {
entry:
  %this.addr = alloca ptr, align 8
  store ptr %this, ptr %this.addr, align 8
  ret void
}

; Function Attrs: mustprogress nounwind uwtable
define internal void @_ZNSt15__new_allocatorISt4pairIPKN18OpenImageIO_v2_6_012_GLOBAL__N_16XMPtagENSt7__cxx1112basic_stringIcSt11char_traitsIcESaIcEEEEE10deallocateEPSC_m(ptr noundef nonnull align 1 dereferenceable(1) %this, ptr noundef %__p, i64 noundef %__n) #4 align 2 {
entry:
  %this.addr = alloca ptr, align 8
  %__p.addr = alloca ptr, align 8
  %__n.addr = alloca i64, align 8
  store ptr %this, ptr %this.addr, align 8
  store ptr %__p, ptr %__p.addr, align 8
  store i64 %__n, ptr %__n.addr, align 8
  %0 = load ptr, ptr %__p.addr, align 8
  call void @_ZdlPv(ptr noundef %0) #18
  ret void
}

; Function Attrs: mustprogress nounwind uwtable
define internal void @_ZSt8_DestroyISt4pairIPKN18OpenImageIO_v2_6_012_GLOBAL__N_16XMPtagENSt7__cxx1112basic_stringIcSt11char_traitsIcESaIcEEEEEvPT_(ptr noundef %__pointer) #4 {
entry:
  %__pointer.addr = alloca ptr, align 8
  store ptr %__pointer, ptr %__pointer.addr, align 8
  %0 = load ptr, ptr %__pointer.addr, align 8
  call void @_ZNSt4pairIPKN18OpenImageIO_v2_6_012_GLOBAL__N_16XMPtagENSt7__cxx1112basic_stringIcSt11char_traitsIcESaIcEEEED2Ev(ptr noundef nonnull align 8 dereferenceable(40) %0) #3
  ret void
}

; Function Attrs: mustprogress nounwind uwtable
define internal void @_ZNSaISt4pairIPKN18OpenImageIO_v2_6_012_GLOBAL__N_16XMPtagENSt7__cxx1112basic_stringIcSt11char_traitsIcESaIcEEEEED2Ev(ptr noundef nonnull align 1 dereferenceable(1) %this) unnamed_addr #4 align 2 {
entry:
  %this.addr = alloca ptr, align 8
  store ptr %this, ptr %this.addr, align 8
  %this1 = load ptr, ptr %this.addr, align 8
  call void @_ZNSt15__new_allocatorISt4pairIPKN18OpenImageIO_v2_6_012_GLOBAL__N_16XMPtagENSt7__cxx1112basic_stringIcSt11char_traitsIcESaIcEEEEED2Ev(ptr noundef nonnull align 1 dereferenceable(1) %this1) #3
  ret void
}

; Function Attrs: mustprogress uwtable
define internal void @_ZNSt16allocator_traitsISaISt4pairIPKN18OpenImageIO_v2_6_012_GLOBAL__N_16XMPtagENSt7__cxx1112basic_stringIcSt11char_traitsIcESaIcEEEEEE10deallocateERSD_PSC_m(ptr noundef nonnull align 1 dereferenceable(1) %__a, ptr noundef %__p, i64 noundef %__n) #6 align 2 {
entry:
  %__a.addr = alloca ptr, align 8
  %__p.addr = alloca ptr, align 8
  %__n.addr = alloca i64, align 8
  store ptr %__a, ptr %__a.addr, align 8
  store ptr %__p, ptr %__p.addr, align 8
  store i64 %__n, ptr %__n.addr, align 8
  %0 = load ptr, ptr %__a.addr, align 8
  %1 = load ptr, ptr %__p.addr, align 8
  %2 = load i64, ptr %__n.addr, align 8
  call void @_ZNSt15__new_allocatorISt4pairIPKN18OpenImageIO_v2_6_012_GLOBAL__N_16XMPtagENSt7__cxx1112basic_stringIcSt11char_traitsIcESaIcEEEEE10deallocateEPSC_m(ptr noundef nonnull align 1 dereferenceable(1) %0, ptr noundef %1, i64 noundef %2)
  ret void
}

; Function Attrs: mustprogress uwtable
define internal void @_ZNSt12_Destroy_auxILb0EE9__destroyIPSt4pairIPKN18OpenImageIO_v2_6_012_GLOBAL__N_16XMPtagENSt7__cxx1112basic_stringIcSt11char_traitsIcESaIcEEEEEEvT_SG_(ptr noundef %__first, ptr noundef %__last) #6 align 2 {
entry:
  %__first.addr = alloca ptr, align 8
  %__last.addr = alloca ptr, align 8
  store ptr %__first, ptr %__first.addr, align 8
  store ptr %__last, ptr %__last.addr, align 8
  br label %for.cond

for.cond:                                         ; preds = %for.inc, %entry
  %0 = load ptr, ptr %__first.addr, align 8
  %1 = load ptr, ptr %__last.addr, align 8
  %cmp = icmp ne ptr %0, %1
  br i1 %cmp, label %for.body, label %for.end

for.body:                                         ; preds = %for.cond
  %2 = load ptr, ptr %__first.addr, align 8
  call void @_ZSt8_DestroyISt4pairIPKN18OpenImageIO_v2_6_012_GLOBAL__N_16XMPtagENSt7__cxx1112basic_stringIcSt11char_traitsIcESaIcEEEEEvPT_(ptr noundef %2)
  br label %for.inc

for.inc:                                          ; preds = %for.body
  %3 = load ptr, ptr %__first.addr, align 8
  %incdec.ptr = getelementptr inbounds %"struct.std::pair.50", ptr %3, i32 1
  store ptr %incdec.ptr, ptr %__first.addr, align 8
  br label %for.cond, !llvm.loop !217

for.end:                                          ; preds = %for.cond
  ret void
}

; Function Attrs: mustprogress nounwind uwtable
define internal void @_ZNSt12_Vector_baseISt4pairIPKN18OpenImageIO_v2_6_012_GLOBAL__N_16XMPtagENSt7__cxx1112basic_stringIcSt11char_traitsIcESaIcEEEESaISC_EE12_Vector_implD2Ev(ptr noundef nonnull align 8 dereferenceable(24) %this) unnamed_addr #4 align 2 {
entry:
  %this.addr = alloca ptr, align 8
  store ptr %this, ptr %this.addr, align 8
  %this1 = load ptr, ptr %this.addr, align 8
  call void @_ZNSaISt4pairIPKN18OpenImageIO_v2_6_012_GLOBAL__N_16XMPtagENSt7__cxx1112basic_stringIcSt11char_traitsIcESaIcEEEEED2Ev(ptr noundef nonnull align 1 dereferenceable(1) %this1) #3
  ret void
}

; Function Attrs: mustprogress uwtable
define internal void @_ZNSt12_Vector_baseISt4pairIPKN18OpenImageIO_v2_6_012_GLOBAL__N_16XMPtagENSt7__cxx1112basic_stringIcSt11char_traitsIcESaIcEEEESaISC_EE13_M_deallocateEPSC_m(ptr noundef nonnull align 8 dereferenceable(24) %this, ptr noundef %__p, i64 noundef %__n) #6 align 2 {
entry:
  %this.addr = alloca ptr, align 8
  %__p.addr = alloca ptr, align 8
  %__n.addr = alloca i64, align 8
  store ptr %this, ptr %this.addr, align 8
  store ptr %__p, ptr %__p.addr, align 8
  store i64 %__n, ptr %__n.addr, align 8
  %this1 = load ptr, ptr %this.addr, align 8
  %0 = load ptr, ptr %__p.addr, align 8
  %tobool = icmp ne ptr %0, null
  br i1 %tobool, label %if.then, label %if.end

if.then:                                          ; preds = %entry
  %_M_impl = getelementptr inbounds %"struct.std::_Vector_base.18", ptr %this1, i32 0, i32 0
  %1 = load ptr, ptr %__p.addr, align 8
  %2 = load i64, ptr %__n.addr, align 8
  call void @_ZNSt16allocator_traitsISaISt4pairIPKN18OpenImageIO_v2_6_012_GLOBAL__N_16XMPtagENSt7__cxx1112basic_stringIcSt11char_traitsIcESaIcEEEEEE10deallocateERSD_PSC_m(ptr noundef nonnull align 1 dereferenceable(1) %_M_impl, ptr noundef %1, i64 noundef %2)
  br label %if.end

if.end:                                           ; preds = %if.then, %entry
  ret void
}

; Function Attrs: mustprogress uwtable
define internal void @_ZSt8_DestroyIPSt4pairIPKN18OpenImageIO_v2_6_012_GLOBAL__N_16XMPtagENSt7__cxx1112basic_stringIcSt11char_traitsIcESaIcEEEEEvT_SE_(ptr noundef %__first, ptr noundef %__last) #6 {
entry:
  %__first.addr = alloca ptr, align 8
  %__last.addr = alloca ptr, align 8
  store ptr %__first, ptr %__first.addr, align 8
  store ptr %__last, ptr %__last.addr, align 8
  %0 = load ptr, ptr %__first.addr, align 8
  %1 = load ptr, ptr %__last.addr, align 8
  call void @_ZNSt12_Destroy_auxILb0EE9__destroyIPSt4pairIPKN18OpenImageIO_v2_6_012_GLOBAL__N_16XMPtagENSt7__cxx1112basic_stringIcSt11char_traitsIcESaIcEEEEEEvT_SG_(ptr noundef %0, ptr noundef %1)
  ret void
}

; Function Attrs: noreturn nounwind uwtable
define linkonce_odr hidden void @__clang_call_terminate(ptr noundef %0) #8 comdat {
  %2 = call ptr @__cxa_begin_catch(ptr %0) #3
  call void @_ZSt9terminatev() #19
  unreachable
}

; Function Attrs: mustprogress nounwind uwtable
define internal void @_ZNSt12_Vector_baseISt4pairIPKN18OpenImageIO_v2_6_012_GLOBAL__N_16XMPtagENSt7__cxx1112basic_stringIcSt11char_traitsIcESaIcEEEESaISC_EED2Ev(ptr noundef nonnull align 8 dereferenceable(24) %this) unnamed_addr #4 align 2 personality ptr @__gxx_personality_v0 {
entry:
  %this.addr = alloca ptr, align 8
  store ptr %this, ptr %this.addr, align 8
  %this1 = load ptr, ptr %this.addr, align 8
  %_M_impl = getelementptr inbounds %"struct.std::_Vector_base.18", ptr %this1, i32 0, i32 0
  %_M_start = getelementptr inbounds %"struct.std::_Vector_base<std::pair<const OpenImageIO_v2_6_0::(anonymous namespace)::XMPtag *, std::__cxx11::basic_string<char>>, std::allocator<std::pair<const OpenImageIO_v2_6_0::(anonymous namespace)::XMPtag *, std::__cxx11::basic_string<char>>>>::_Vector_impl_data", ptr %_M_impl, i32 0, i32 0
  %0 = load ptr, ptr %_M_start, align 8
  %_M_impl2 = getelementptr inbounds %"struct.std::_Vector_base.18", ptr %this1, i32 0, i32 0
  %_M_end_of_storage = getelementptr inbounds %"struct.std::_Vector_base<std::pair<const OpenImageIO_v2_6_0::(anonymous namespace)::XMPtag *, std::__cxx11::basic_string<char>>, std::allocator<std::pair<const OpenImageIO_v2_6_0::(anonymous namespace)::XMPtag *, std::__cxx11::basic_string<char>>>>::_Vector_impl_data", ptr %_M_impl2, i32 0, i32 2
  %1 = load ptr, ptr %_M_end_of_storage, align 8
  %_M_impl3 = getelementptr inbounds %"struct.std::_Vector_base.18", ptr %this1, i32 0, i32 0
  %_M_start4 = getelementptr inbounds %"struct.std::_Vector_base<std::pair<const OpenImageIO_v2_6_0::(anonymous namespace)::XMPtag *, std::__cxx11::basic_string<char>>, std::allocator<std::pair<const OpenImageIO_v2_6_0::(anonymous namespace)::XMPtag *, std::__cxx11::basic_string<char>>>>::_Vector_impl_data", ptr %_M_impl3, i32 0, i32 0
  %2 = load ptr, ptr %_M_start4, align 8
  %sub.ptr.lhs.cast = ptrtoint ptr %1 to i64
  %sub.ptr.rhs.cast = ptrtoint ptr %2 to i64
  %sub.ptr.sub = sub i64 %sub.ptr.lhs.cast, %sub.ptr.rhs.cast
  %sub.ptr.div = sdiv exact i64 %sub.ptr.sub, 40
  invoke void @_ZNSt12_Vector_baseISt4pairIPKN18OpenImageIO_v2_6_012_GLOBAL__N_16XMPtagENSt7__cxx1112basic_stringIcSt11char_traitsIcESaIcEEEESaISC_EE13_M_deallocateEPSC_m(ptr noundef nonnull align 8 dereferenceable(24) %this1, ptr noundef %0, i64 noundef %sub.ptr.div)
          to label %invoke.cont unwind label %terminate.lpad

invoke.cont:                                      ; preds = %entry
  %_M_impl5 = getelementptr inbounds %"struct.std::_Vector_base.18", ptr %this1, i32 0, i32 0
  call void @_ZNSt12_Vector_baseISt4pairIPKN18OpenImageIO_v2_6_012_GLOBAL__N_16XMPtagENSt7__cxx1112basic_stringIcSt11char_traitsIcESaIcEEEESaISC_EE12_Vector_implD2Ev(ptr noundef nonnull align 8 dereferenceable(24) %_M_impl5) #3
  ret void

terminate.lpad:                                   ; preds = %entry
  %3 = landingpad { ptr, i32 }
          catch ptr null
  %4 = extractvalue { ptr, i32 } %3, 0
  call void @__clang_call_terminate(ptr %4) #19
  unreachable
}

; Function Attrs: mustprogress uwtable
define internal void @_ZSt8_DestroyIPSt4pairIPKN18OpenImageIO_v2_6_012_GLOBAL__N_16XMPtagENSt7__cxx1112basic_stringIcSt11char_traitsIcESaIcEEEESC_EvT_SE_RSaIT0_E(ptr noundef %__first, ptr noundef %__last, ptr noundef nonnull align 1 dereferenceable(1) %0) #6 {
entry:
  %__first.addr = alloca ptr, align 8
  %__last.addr = alloca ptr, align 8
  %.addr = alloca ptr, align 8
  store ptr %__first, ptr %__first.addr, align 8
  store ptr %__last, ptr %__last.addr, align 8
  store ptr %0, ptr %.addr, align 8
  %1 = load ptr, ptr %__first.addr, align 8
  %2 = load ptr, ptr %__last.addr, align 8
  call void @_ZSt8_DestroyIPSt4pairIPKN18OpenImageIO_v2_6_012_GLOBAL__N_16XMPtagENSt7__cxx1112basic_stringIcSt11char_traitsIcESaIcEEEEEvT_SE_(ptr noundef %1, ptr noundef %2)
  ret void
}

; Function Attrs: mustprogress nounwind uwtable
define internal noundef nonnull align 1 dereferenceable(1) ptr @_ZNSt12_Vector_baseISt4pairIPKN18OpenImageIO_v2_6_012_GLOBAL__N_16XMPtagENSt7__cxx1112basic_stringIcSt11char_traitsIcESaIcEEEESaISC_EE19_M_get_Tp_allocatorEv(ptr noundef nonnull align 8 dereferenceable(24) %this) #4 align 2 {
entry:
  %this.addr = alloca ptr, align 8
  store ptr %this, ptr %this.addr, align 8
  %this1 = load ptr, ptr %this.addr, align 8
  %_M_impl = getelementptr inbounds %"struct.std::_Vector_base.18", ptr %this1, i32 0, i32 0
  ret ptr %_M_impl
}

; Function Attrs: mustprogress nounwind uwtable
define internal void @_ZNSt6vectorISt4pairIPKN18OpenImageIO_v2_6_012_GLOBAL__N_16XMPtagENSt7__cxx1112basic_stringIcSt11char_traitsIcESaIcEEEESaISC_EED2Ev(ptr noundef nonnull align 8 dereferenceable(24) %this) unnamed_addr #4 align 2 personality ptr @__gxx_personality_v0 {
entry:
  %this.addr = alloca ptr, align 8
  store ptr %this, ptr %this.addr, align 8
  %this1 = load ptr, ptr %this.addr, align 8
  %_M_impl = getelementptr inbounds %"struct.std::_Vector_base.18", ptr %this1, i32 0, i32 0
  %_M_start = getelementptr inbounds %"struct.std::_Vector_base<std::pair<const OpenImageIO_v2_6_0::(anonymous namespace)::XMPtag *, std::__cxx11::basic_string<char>>, std::allocator<std::pair<const OpenImageIO_v2_6_0::(anonymous namespace)::XMPtag *, std::__cxx11::basic_string<char>>>>::_Vector_impl_data", ptr %_M_impl, i32 0, i32 0
  %0 = load ptr, ptr %_M_start, align 8
  %_M_impl2 = getelementptr inbounds %"struct.std::_Vector_base.18", ptr %this1, i32 0, i32 0
  %_M_finish = getelementptr inbounds %"struct.std::_Vector_base<std::pair<const OpenImageIO_v2_6_0::(anonymous namespace)::XMPtag *, std::__cxx11::basic_string<char>>, std::allocator<std::pair<const OpenImageIO_v2_6_0::(anonymous namespace)::XMPtag *, std::__cxx11::basic_string<char>>>>::_Vector_impl_data", ptr %_M_impl2, i32 0, i32 1
  %1 = load ptr, ptr %_M_finish, align 8
  %call = call noundef nonnull align 1 dereferenceable(1) ptr @_ZNSt12_Vector_baseISt4pairIPKN18OpenImageIO_v2_6_012_GLOBAL__N_16XMPtagENSt7__cxx1112basic_stringIcSt11char_traitsIcESaIcEEEESaISC_EE19_M_get_Tp_allocatorEv(ptr noundef nonnull align 8 dereferenceable(24) %this1) #3
  invoke void @_ZSt8_DestroyIPSt4pairIPKN18OpenImageIO_v2_6_012_GLOBAL__N_16XMPtagENSt7__cxx1112basic_stringIcSt11char_traitsIcESaIcEEEESC_EvT_SE_RSaIT0_E(ptr noundef %0, ptr noundef %1, ptr noundef nonnull align 1 dereferenceable(1) %call)
          to label %invoke.cont unwind label %terminate.lpad

invoke.cont:                                      ; preds = %entry
  call void @_ZNSt12_Vector_baseISt4pairIPKN18OpenImageIO_v2_6_012_GLOBAL__N_16XMPtagENSt7__cxx1112basic_stringIcSt11char_traitsIcESaIcEEEESaISC_EED2Ev(ptr noundef nonnull align 8 dereferenceable(24) %this1) #3
  ret void

terminate.lpad:                                   ; preds = %entry
  %2 = landingpad { ptr, i32 }
          catch ptr null
  %3 = extractvalue { ptr, i32 } %2, 0
  call void @__clang_call_terminate(ptr %3) #19
  unreachable
}