; Function Attrs: mustprogress nounwind uwtable
define internal fastcc void @_ZNSt6vectorISt4pairIPKN18OpenImageIO_v2_6_012_GLOBAL__N_16XMPtagENSt7__cxx1112basic_stringIcSt11char_traitsIcESaIcEEEESaISC_EED2Ev(ptr nocapture noundef nonnull readonly align 8 dereferenceable(24) %this) unnamed_addr #3 align 2 personality ptr @__gxx_personality_v0 {
entry:
  %0 = load ptr, ptr %this, align 8
  %_M_finish = getelementptr inbounds i8, ptr %this, i64 8
  %1 = load ptr, ptr %_M_finish, align 8
  %cmp.not3.i.i.i = icmp eq ptr %0, %1
  br i1 %cmp.not3.i.i.i, label %invoke.cont, label %for.body.i.i.i

for.body.i.i.i:                                   ; preds = %entry, %for.body.i.i.i
  %__first.addr.04.i.i.i = phi ptr [ %incdec.ptr.i.i.i, %for.body.i.i.i ], [ %0, %entry ]
  %second.i.i.i.i.i = getelementptr inbounds i8, ptr %__first.addr.04.i.i.i, i64 8
  tail call void @_ZNSt7__cxx1112basic_stringIcSt11char_traitsIcESaIcEED1Ev(ptr noundef nonnull align 8 dereferenceable(32) %second.i.i.i.i.i) #23
  %incdec.ptr.i.i.i = getelementptr inbounds i8, ptr %__first.addr.04.i.i.i, i64 40
  %cmp.not.i.i.i = icmp eq ptr %incdec.ptr.i.i.i, %1
  br i1 %cmp.not.i.i.i, label %invoke.contthread-pre-split, label %for.body.i.i.i, !llvm.loop !51

invoke.contthread-pre-split:                      ; preds = %for.body.i.i.i
  %this.val.pr = load ptr, ptr %this, align 8
  br label %invoke.cont

invoke.cont:                                      ; preds = %invoke.contthread-pre-split, %entry
  %this.val = phi ptr [ %this.val.pr, %invoke.contthread-pre-split ], [ %0, %entry ]
  %tobool.not.i.i = icmp eq ptr %this.val, null
  br i1 %tobool.not.i.i, label %_ZNSt12_Vector_baseISt4pairIPKN18OpenImageIO_v2_6_012_GLOBAL__N_16XMPtagENSt7__cxx1112basic_stringIcSt11char_traitsIcESaIcEEEESaISC_EED2Ev.exit, label %if.then.i.i

if.then.i.i:                                      ; preds = %invoke.cont
  tail call void @_ZdlPv(ptr noundef nonnull %this.val) #24
  br label %_ZNSt12_Vector_baseISt4pairIPKN18OpenImageIO_v2_6_012_GLOBAL__N_16XMPtagENSt7__cxx1112basic_stringIcSt11char_traitsIcESaIcEEEESaISC_EED2Ev.exit

_ZNSt12_Vector_baseISt4pairIPKN18OpenImageIO_v2_6_012_GLOBAL__N_16XMPtagENSt7__cxx1112basic_stringIcSt11char_traitsIcESaIcEEEESaISC_EED2Ev.exit: ; preds = %invoke.cont, %if.then.i.i
  ret void
}